; Function Attrs: nofree norecurse nosync nounwind memory(argmem: read) uwtable
define float @lv_arc_get_angle_start(ptr noundef readonly captures(address_is_null) %0) local_unnamed_addr #4 {
  %.not = icmp eq ptr %0, null
  br i1 %.not, label %.preheader, label %2

.preheader:                                       ; preds = %1, %.preheader
  br label %.preheader

2:                                                ; preds = %1
  %3 = getelementptr inbounds nuw i8, ptr %0, i64 68
  %4 = load float, ptr %3, align 4, !tbaa !19
  ret float %4
}